; Function Attrs: nounwind uwtable
define internal ptr @deque___reduce__(ptr noundef %0, ptr readnone captures(none) %1) #0 {
  %3 = tail call ptr @_PyObject_GetState(ptr noundef %0) #9
  %4 = icmp eq ptr %3, null
  br i1 %4, label %deque___reduce___impl.exit, label %5

5:                                                ; preds = %2
  %6 = tail call ptr @PyObject_GetIter(ptr noundef %0) #9
  %7 = icmp eq ptr %6, null
  br i1 %7, label %8, label %14

8:                                                ; preds = %5
  %9 = load i32, ptr %3, align 8, !tbaa !20
  %.not.i.i = icmp sgt i32 %9, -1
  br i1 %.not.i.i, label %10, label %deque___reduce___impl.exit

10:                                               ; preds = %8
  %11 = add nsw i32 %9, -1
  store i32 %11, ptr %3, align 8, !tbaa !20
  %12 = icmp eq i32 %11, 0
  br i1 %12, label %13, label %deque___reduce___impl.exit

13:                                               ; preds = %10
  tail call void @_Py_Dealloc(ptr noundef nonnull %3) #9
  br label %deque___reduce___impl.exit

14:                                               ; preds = %5
  %15 = getelementptr inbounds nuw i8, ptr %0, i64 64
  %16 = load i64, ptr %15, align 8, !tbaa !45
  %17 = icmp slt i64 %16, 0
  %18 = getelementptr i8, ptr %0, i64 8
  %.val16.i = load ptr, ptr %18, align 8, !tbaa !22
  br i1 %17, label %19, label %21

19:                                               ; preds = %14
  %20 = tail call ptr (ptr, ...) @Py_BuildValue(ptr noundef nonnull @.str.42, ptr noundef %.val16.i, ptr noundef nonnull %3, ptr noundef nonnull %6) #9
  br label %deque___reduce___impl.exit

21:                                               ; preds = %14
  %22 = tail call ptr (ptr, ...) @Py_BuildValue(ptr noundef nonnull @.str.43, ptr noundef %.val16.i, i64 noundef %16, ptr noundef nonnull %3, ptr noundef nonnull %6) #9
  br label %deque___reduce___impl.exit

deque___reduce___impl.exit:                       ; preds = %2, %8, %10, %13, %19, %21
  %.0.i = phi ptr [ %20, %19 ], [ %22, %21 ], [ null, %2 ], [ null, %8 ], [ null, %10 ], [ null, %13 ]
  ret ptr %.0.i
}